target datalayout = "e-m:e-p270:32:32-p271:32:32-p272:64:64-i64:64-i128:128-f80:128-n8:16:32:64-S128"
target triple = "x86_64-unknown-linux-gnu"

%"class.icu_75::ResourceDataValue" = type <{ %"class.icu_75::ResourceValue", ptr, ptr, i32, %"class.icu_75::ResourceTracer", [3 x i8] }>
%"class.icu_75::ResourceValue" = type { %"class.icu_75::UObject" }
%"class.icu_75::UObject" = type { ptr }
%"class.icu_75::ResourceTracer" = type { i8 }
%"class.icu_75::ResourceArray" = type <{ ptr, ptr, i32, %"class.icu_75::ResourceTracer", [3 x i8] }>

; Function Attrs: mustprogress nounwind uwtable
define linkonce_odr noundef nonnull align 8 dereferenceable(64) ptr @_ZNK6icu_7517ResourceDataValue7getDataEv(ptr noundef nonnull align 8 dereferenceable(29) %this) #2 comdat align 2 {
entry:
  %this.addr = alloca ptr, align 8
  store ptr %this, ptr %this.addr, align 8
  %this1 = load ptr, ptr %this.addr, align 8
  %pResData = getelementptr inbounds %"class.icu_75::ResourceDataValue", ptr %this1, i32 0, i32 1
  %0 = load ptr, ptr %pResData, align 8
  ret ptr %0
}

; Function Attrs: mustprogress uwtable
define noundef i32 @_ZNK6icu_7517ResourceDataValue14getStringArrayEPNS_13UnicodeStringEiR10UErrorCode(ptr noundef nonnull align 8 dereferenceable(29) %this, ptr noundef %dest, i32 noundef %capacity, ptr noundef nonnull align 4 dereferenceable(4) %errorCode) unnamed_addr #0 align 2 {
entry:
  %this.addr = alloca ptr, align 8
  %dest.addr = alloca ptr, align 8
  %capacity.addr = alloca i32, align 4
  %errorCode.addr = alloca ptr, align 8
  %ref.tmp = alloca %"class.icu_75::ResourceArray", align 8
  store ptr %this, ptr %this.addr, align 8
  store ptr %dest, ptr %dest.addr, align 8
  store i32 %capacity, ptr %capacity.addr, align 4
  store ptr %errorCode, ptr %errorCode.addr, align 8
  %this1 = load ptr, ptr %this.addr, align 8
  %call = call noundef nonnull align 8 dereferenceable(64) ptr @_ZNK6icu_7517ResourceDataValue7getDataEv(ptr noundef nonnull align 8 dereferenceable(29) %this1)
  %0 = load ptr, ptr %errorCode.addr, align 8
  %vtable = load ptr, ptr %this1, align 8
  %vfn = getelementptr inbounds ptr, ptr %vtable, i64 10
  %1 = load ptr, ptr %vfn, align 8
  call void %1(ptr sret(%"class.icu_75::ResourceArray") align 8 %ref.tmp, ptr noundef nonnull align 8 dereferenceable(29) %this1, ptr noundef nonnull align 4 dereferenceable(4) %0)
  %2 = load ptr, ptr %dest.addr, align 8
  %3 = load i32, ptr %capacity.addr, align 4
  %4 = load ptr, ptr %errorCode.addr, align 8
  %call2 = call noundef i32 @_ZN12_GLOBAL__N_114getStringArrayEPK12ResourceDataRKN6icu_7513ResourceArrayEPNS3_13UnicodeStringEiR10UErrorCode(ptr noundef %call, ptr noundef nonnull align 8 dereferenceable(21) %ref.tmp, ptr noundef %2, i32 noundef %3, ptr noundef nonnull align 4 dereferenceable(4) %4)
  ret i32 %call2
}