; Function Attrs: mustprogress uwtable
define noundef i32 @_ZNK6icu_7517ResourceDataValue14getStringArrayEPNS_13UnicodeStringEiR10UErrorCode(ptr noundef nonnull align 8 dereferenceable(29) %this, ptr noundef %dest, i32 noundef %capacity, ptr noundef nonnull align 4 dereferenceable(4) %errorCode) unnamed_addr #0 align 2 {
entry:
  %ref.tmp = alloca %"class.icu_75::ResourceArray", align 8
  %pResData.i = getelementptr inbounds i8, ptr %this, i64 8
  %0 = load ptr, ptr %pResData.i, align 8
  %vtable = load ptr, ptr %this, align 8
  %vfn = getelementptr inbounds i8, ptr %vtable, i64 80
  %1 = load ptr, ptr %vfn, align 8
  call void %1(ptr nonnull sret(%"class.icu_75::ResourceArray") align 8 %ref.tmp, ptr noundef nonnull align 8 dereferenceable(29) %this, ptr noundef nonnull align 4 dereferenceable(4) %errorCode)
  %call2 = call fastcc noundef i32 @_ZN12_GLOBAL__N_114getStringArrayEPK12ResourceDataRKN6icu_7513ResourceArrayEPNS3_13UnicodeStringEiR10UErrorCode(ptr noundef nonnull %0, ptr noundef nonnull align 8 dereferenceable(21) %ref.tmp, ptr noundef %dest, i32 noundef %capacity, ptr noundef nonnull align 4 dereferenceable(4) %errorCode)
  ret i32 %call2
}